target datalayout = "e-m:e-p270:32:32-p271:32:32-p272:64:64-i64:64-i128:128-f80:128-n8:16:32:64-S128"
target triple = "x86_64-unknown-linux-gnu"

%struct.grpc_slice = type { ptr, %"union.grpc_slice::grpc_slice_data" }
%"union.grpc_slice::grpc_slice_data" = type { %"struct.grpc_slice::grpc_slice_data::grpc_slice_refcounted", [8 x i8] }
%"struct.grpc_slice::grpc_slice_data::grpc_slice_refcounted" = type { i64, ptr }
%struct.grpc_byte_buffer = type { ptr, i32, %"union.grpc_byte_buffer::grpc_byte_buffer_data" }
%"union.grpc_byte_buffer::grpc_byte_buffer_data" = type { %"struct.grpc_byte_buffer::grpc_byte_buffer_data::grpc_compressed_buffer" }
%"struct.grpc_byte_buffer::grpc_byte_buffer_data::grpc_compressed_buffer" = type { i32, %struct.grpc_slice_buffer }
%struct.grpc_slice_buffer = type { ptr, ptr, i64, i64, i64, [7 x %struct.grpc_slice] }

@.str.1 = private unnamed_addr constant [123 x i8] c"generated/home/dtcxzyw/WorkSpace/Projects/compilers/llvm-opt-benchmark/bench/grpc/grpc/src/core/lib/surface/byte_buffer.cc\00", align 1
@.str.2 = private unnamed_addr constant [9 x i8] c"return 0\00", align 1

; Function Attrs: mustprogress uwtable
define i64 @grpc_byte_buffer_length(ptr noundef %bb) #4 {
entry:
  %bb.addr = alloca ptr, align 8
  store ptr %bb, ptr %bb.addr, align 8
  %0 = load ptr, ptr %bb.addr, align 8
  %type = getelementptr inbounds %struct.grpc_byte_buffer, ptr %0, i32 0, i32 1
  %1 = load i32, ptr %type, align 8
  switch i32 %1, label %sw.epilog [
    i32 0, label %sw.bb
  ]

sw.bb:                                            ; preds = %entry
  %2 = load ptr, ptr %bb.addr, align 8
  %data = getelementptr inbounds %struct.grpc_byte_buffer, ptr %2, i32 0, i32 2
  %slice_buffer = getelementptr inbounds %"struct.grpc_byte_buffer::grpc_byte_buffer_data::grpc_compressed_buffer", ptr %data, i32 0, i32 1
  %length = getelementptr inbounds %struct.grpc_slice_buffer, ptr %slice_buffer, i32 0, i32 4
  %3 = load i64, ptr %length, align 8
  ret i64 %3

sw.epilog:                                        ; preds = %entry
  br label %do.body

do.body:                                          ; preds = %sw.epilog
  call void @gpr_unreachable_code(ptr noundef @.str.2, ptr noundef @.str.1, i32 noundef 96) #13
  unreachable

do.end:                                           ; No predecessors!
  call void @llvm.trap()
  unreachable
}