; Function Attrs: mustprogress uwtable
define i64 @grpc_byte_buffer_length(ptr nocapture noundef readonly %bb) local_unnamed_addr #3 {
entry:
  %type = getelementptr inbounds i8, ptr %bb, i64 8
  %0 = load i32, ptr %type, align 8
  %cond = icmp eq i32 %0, 0
  br i1 %cond, label %sw.bb, label %do.body

sw.bb:                                            ; preds = %entry
  %length = getelementptr inbounds i8, ptr %bb, i64 56
  %1 = load i64, ptr %length, align 8
  ret i64 %1

do.body:                                          ; preds = %entry
  tail call void @gpr_unreachable_code(ptr noundef nonnull @.str.2, ptr noundef nonnull @.str.1, i32 noundef 96) #13
  unreachable
}